target datalayout = "e-m:e-p270:32:32-p271:32:32-p272:64:64-i64:64-i128:128-f80:128-n8:16:32:64-S128"
target triple = "x86_64-pc-linux-gnu"

%"class.cv::reg::MapShift" = type { %"class.cv::reg::Map", %"class.cv::Vec" }
%"class.cv::reg::Map" = type { ptr }
%"class.cv::Vec" = type { %"class.cv::Matx" }
%"class.cv::Matx" = type { [2 x double] }
%"class.std::__shared_ptr" = type { ptr, %"class.std::__shared_count" }
%"class.std::__shared_count" = type { ptr }

; Function Attrs: inlinehint mustprogress nounwind uwtable
define internal noundef double @_ZN2cvL13saturate_castIdEET_d(double noundef %0) #1 {
  %2 = alloca double, align 8
  store double %0, ptr %2, align 8, !tbaa !35
  %3 = load double, ptr %2, align 8, !tbaa !35
  ret double %3
}

; Function Attrs: mustprogress nounwind uwtable
define linkonce_odr hidden noundef ptr @_ZNKSt12__shared_ptrIN2cv3reg3MapELN9__gnu_cxx12_Lock_policyE2EE3getEv(ptr noundef nonnull align 8 dereferenceable(16) %0) #6 comdat align 2 {
  %2 = alloca ptr, align 8
  store ptr %0, ptr %2, align 8, !tbaa !75
  %3 = load ptr, ptr %2, align 8
  %4 = getelementptr inbounds nuw %"class.std::__shared_ptr", ptr %3, i32 0, i32 0
  %5 = load ptr, ptr %4, align 8, !tbaa !77
  ret ptr %5
}

; Function Attrs: inlinehint mustprogress nounwind uwtable
define internal noundef nonnull align 8 dereferenceable(16) ptr @_ZN2cvpLIddLi2EEERNS_3VecIT_XT1_EEES4_RKNS1_IT0_XT1_EEE(ptr noundef nonnull align 8 dereferenceable(16) %0, ptr noundef nonnull align 8 dereferenceable(16) %1) #1 {
  %3 = alloca ptr, align 8
  %4 = alloca ptr, align 8
  %5 = alloca i32, align 4
  store ptr %0, ptr %3, align 8, !tbaa !12
  store ptr %1, ptr %4, align 8, !tbaa !12
  call void @llvm.lifetime.start.p0(i64 4, ptr %5) #12
  store i32 0, ptr %5, align 4, !tbaa !16
  br label %6

6:                                                ; preds = %30, %2
  %7 = load i32, ptr %5, align 4, !tbaa !16
  %8 = icmp slt i32 %7, 2
  br i1 %8, label %10, label %9

9:                                                ; preds = %6
  call void @llvm.lifetime.end.p0(i64 4, ptr %5) #12
  br label %33

10:                                               ; preds = %6
  %11 = load ptr, ptr %3, align 8, !tbaa !12
  %12 = getelementptr inbounds nuw %"class.cv::Matx", ptr %11, i32 0, i32 0
  %13 = load i32, ptr %5, align 4, !tbaa !16
  %14 = sext i32 %13 to i64
  %15 = getelementptr inbounds [2 x double], ptr %12, i64 0, i64 %14
  %16 = load double, ptr %15, align 8, !tbaa !35
  %17 = load ptr, ptr %4, align 8, !tbaa !12
  %18 = getelementptr inbounds nuw %"class.cv::Matx", ptr %17, i32 0, i32 0
  %19 = load i32, ptr %5, align 4, !tbaa !16
  %20 = sext i32 %19 to i64
  %21 = getelementptr inbounds [2 x double], ptr %18, i64 0, i64 %20
  %22 = load double, ptr %21, align 8, !tbaa !35
  %23 = fadd double %16, %22
  %24 = call noundef double @_ZN2cvL13saturate_castIdEET_d(double noundef %23)
  %25 = load ptr, ptr %3, align 8, !tbaa !12
  %26 = getelementptr inbounds nuw %"class.cv::Matx", ptr %25, i32 0, i32 0
  %27 = load i32, ptr %5, align 4, !tbaa !16
  %28 = sext i32 %27 to i64
  %29 = getelementptr inbounds [2 x double], ptr %26, i64 0, i64 %28
  store double %24, ptr %29, align 8, !tbaa !35
  br label %30

30:                                               ; preds = %10
  %31 = load i32, ptr %5, align 4, !tbaa !16
  %32 = add nsw i32 %31, 1
  store i32 %32, ptr %5, align 4, !tbaa !16
  br label %6, !llvm.loop !56

33:                                               ; preds = %9
  %34 = load ptr, ptr %3, align 8, !tbaa !12
  ret ptr %34
}

; Function Attrs: mustprogress nounwind uwtable
define linkonce_odr hidden noundef nonnull align 8 dereferenceable(16) ptr @_ZNK2cv3reg8MapShift8getShiftEv(ptr noundef nonnull align 8 dereferenceable(24) %0) #6 comdat align 2 {
  %2 = alloca ptr, align 8
  store ptr %0, ptr %2, align 8, !tbaa !3
  %3 = load ptr, ptr %2, align 8
  %4 = getelementptr inbounds nuw %"class.cv::reg::MapShift", ptr %3, i32 0, i32 1
  ret ptr %4
}

; Function Attrs: mustprogress nounwind uwtable
define linkonce_odr hidden noundef nonnull align 8 dereferenceable(8) ptr @_ZNK2cv3PtrINS_3reg3MapEEdeEv(ptr noundef nonnull align 8 dereferenceable(16) %0) #6 comdat align 2 {
  %2 = alloca ptr, align 8
  store ptr %0, ptr %2, align 8, !tbaa !54
  %3 = load ptr, ptr %2, align 8
  %4 = call noundef ptr @_ZNKSt12__shared_ptrIN2cv3reg3MapELN9__gnu_cxx12_Lock_policyE2EE3getEv(ptr noundef nonnull align 8 dereferenceable(16) %3) #12
  ret ptr %4
}

; Function Attrs: mustprogress uwtable
define void @_ZN2cv3reg8MapShift7composeENS_3PtrINS0_3MapEEE(ptr noundef nonnull align 8 dereferenceable(24) %0, ptr noundef %1) unnamed_addr #0 align 2 {
  %3 = alloca ptr, align 8
  %4 = alloca ptr, align 8
  %5 = alloca ptr, align 8
  store ptr %0, ptr %3, align 8, !tbaa !3
  store ptr %1, ptr %4, align 8, !tbaa !54
  %6 = load ptr, ptr %3, align 8
  call void @llvm.lifetime.start.p0(i64 8, ptr %5) #12
  %7 = call noundef nonnull align 8 dereferenceable(8) ptr @_ZNK2cv3PtrINS_3reg3MapEEdeEv(ptr noundef nonnull align 8 dereferenceable(16) %1) #12
  store ptr %7, ptr %5, align 8, !tbaa !3
  %8 = load ptr, ptr %5, align 8, !tbaa !3
  %9 = call noundef nonnull align 8 dereferenceable(16) ptr @_ZNK2cv3reg8MapShift8getShiftEv(ptr noundef nonnull align 8 dereferenceable(24) %8)
  %10 = getelementptr inbounds nuw %"class.cv::reg::MapShift", ptr %6, i32 0, i32 1
  %11 = call noundef nonnull align 8 dereferenceable(16) ptr @_ZN2cvpLIddLi2EEERNS_3VecIT_XT1_EEES4_RKNS1_IT0_XT1_EEE(ptr noundef nonnull align 8 dereferenceable(16) %10, ptr noundef nonnull align 8 dereferenceable(16) %9)
  call void @llvm.lifetime.end.p0(i64 8, ptr %5) #12
  ret void
}