; Function Attrs: mustprogress nofree norecurse nosync nounwind willreturn memory(read, argmem: readwrite, inaccessiblemem: none) uwtable
define void @_ZN2cv3reg8MapShift7composeENS_3PtrINS0_3MapEEE(ptr noundef nonnull align 8 captures(none) dereferenceable(24) %0, ptr noundef readonly captures(none) %1) unnamed_addr #8 align 2 {
_ZN2cvpLIddLi2EEERNS_3VecIT_XT1_EEES4_RKNS1_IT0_XT1_EEE.exit.critedge:
  %2 = load ptr, ptr %1, align 8, !tbaa !45
  %3 = getelementptr inbounds nuw i8, ptr %2, i64 8
  %4 = getelementptr inbounds nuw i8, ptr %0, i64 8
  %5 = load double, ptr %4, align 8, !tbaa !6
  %6 = load double, ptr %3, align 8, !tbaa !6
  %7 = fadd double %5, %6
  store double %7, ptr %4, align 8, !tbaa !6
  %8 = getelementptr inbounds nuw i8, ptr %0, i64 16
  %9 = load double, ptr %8, align 8, !tbaa !6
  %10 = getelementptr inbounds nuw i8, ptr %2, i64 16
  %11 = load double, ptr %10, align 8, !tbaa !6
  %12 = fadd double %9, %11
  store double %12, ptr %8, align 8, !tbaa !6
  ret void
}